	.text
	.syntax unified
	.eabi_attribute	67, "2.09"	@ Tag_conformance
	.cpu	cortex-a8
	.eabi_attribute	6, 10	@ Tag_CPU_arch
	.eabi_attribute	7, 65	@ Tag_CPU_arch_profile
	.eabi_attribute	8, 1	@ Tag_ARM_ISA_use
	.eabi_attribute	9, 2	@ Tag_THUMB_ISA_use
	.fpu	neon
	.eabi_attribute	17, 1	@ Tag_ABI_PCS_GOT_use
	.eabi_attribute	20, 2	@ Tag_ABI_FP_denormal
	.eabi_attribute	23, 1	@ Tag_ABI_FP_number_model
	.eabi_attribute	34, 1	@ Tag_CPU_unaligned_access
	.eabi_attribute	24, 1	@ Tag_ABI_align_needed
	.eabi_attribute	25, 1	@ Tag_ABI_align_preserved
	.eabi_attribute	28, 1	@ Tag_ABI_VFP_args
	.eabi_attribute	38, 1	@ Tag_ABI_FP_16bit_format
	.eabi_attribute	18, 4	@ Tag_ABI_PCS_wchar_t
	.eabi_attribute	26, 2	@ Tag_ABI_enum_size
	.eabi_attribute	14, 0	@ Tag_ABI_PCS_R9_use
	.eabi_attribute	68, 1	@ Tag_Virtualization_use
	.file	"/root/Bela/projects/delay/build/render.bc"
	.file	1 "/root/Bela/projects/delay" "render.cpp"
	.globl	setup
	.p2align	2
	.type	setup,%function
setup:                                  @ @setup
.Lfunc_begin0:
	.loc	1 85 0                  @ /root/Bela/projects/delay/render.cpp:85:0
	.fnstart
	.cfi_startproc
@ BB#0:
	@DEBUG_VALUE: setup:context <- %R0
	@DEBUG_VALUE: setup:userData <- %R1
	.loc	1 87 5 prologue_end     @ /root/Bela/projects/delay/render.cpp:87:5
	mov	r0, #1
	bx	lr
.Ltmp0:
.Lfunc_end0:
	.size	setup, .Lfunc_end0-setup
	.cfi_endproc
	.fnend

	.globl	render
	.p2align	2
	.type	render,%function
render:                                 @ @render
.Lfunc_begin1:
	.loc	1 91 0                  @ /root/Bela/projects/delay/render.cpp:91:0
	.fnstart
	.cfi_startproc
@ BB#0:
	.save	{r4, r5, r6, r7, r8, r9, r10, r11, lr}
	push	{r4, r5, r6, r7, r8, r9, r10, r11, lr}
.Ltmp1:
	.cfi_def_cfa_offset 36
.Ltmp2:
	.cfi_offset lr, -4
.Ltmp3:
	.cfi_offset r11, -8
.Ltmp4:
	.cfi_offset r10, -12
.Ltmp5:
	.cfi_offset r9, -16
.Ltmp6:
	.cfi_offset r8, -20
.Ltmp7:
	.cfi_offset r7, -24
.Ltmp8:
	.cfi_offset r6, -28
.Ltmp9:
	.cfi_offset r5, -32
.Ltmp10:
	.cfi_offset r4, -36
	.pad	#4
	sub	sp, sp, #4
.Ltmp11:
	.cfi_def_cfa_offset 40
	.vsave	{d8, d9, d10, d11, d12, d13, d14}
	vpush	{d8, d9, d10, d11, d12, d13, d14}
.Ltmp12:
	.cfi_def_cfa_offset 96
.Ltmp13:
	.cfi_offset d14, -48
.Ltmp14:
	.cfi_offset d13, -56
.Ltmp15:
	.cfi_offset d12, -64
.Ltmp16:
	.cfi_offset d11, -72
.Ltmp17:
	.cfi_offset d10, -80
.Ltmp18:
	.cfi_offset d9, -88
.Ltmp19:
	.cfi_offset d8, -96
	.pad	#8
	sub	sp, sp, #8
.Ltmp20:
	.cfi_def_cfa_offset 104
	@DEBUG_VALUE: render:context <- %R0
	@DEBUG_VALUE: render:userData <- %R1
.Ltmp21:
	@DEBUG_VALUE: n <- 0
	.loc	1 93 42 prologue_end discriminator 1 @ /root/Bela/projects/delay/render.cpp:93:42
	ldr	r8, [r0, #20]
	.loc	1 93 5 is_stmt 0 discriminator 1 @ /root/Bela/projects/delay/render.cpp:93:5
	cmp	r8, #0
	beq	.LBB1_3
.Ltmp22:
@ BB#1:                                 @ %.lr.ph
	@DEBUG_VALUE: render:userData <- %R1
	@DEBUG_VALUE: render:context <- %R0
	.loc	1 103 12 is_stmt 1      @ /root/Bela/projects/delay/render.cpp:103:12
	movw	lr, :lower16:.L_MergedGlobals
	ldr	r1, [r0]
.Ltmp23:
	movt	lr, :upper16:.L_MergedGlobals
	str	r1, [sp, #4]            @ 4-byte Spill
	ldr	r1, [lr]
	mov	r11, #0
.Ltmp24:
	.loc	1 109 90                @ /root/Bela/projects/delay/render.cpp:109:90
	ldr	r3, [lr, #16]
	.loc	1 109 89 is_stmt 0      @ /root/Bela/projects/delay/render.cpp:109:89
	movw	r12, #44100
	str	r3, [sp]                @ 4-byte Spill
.LBB1_2:                                @ =>This Inner Loop Header: Depth=1
.Ltmp25:
	@DEBUG_VALUE: out_l <- 0.000000e+00
	@DEBUG_VALUE: out_r <- 0.000000e+00
	.loc	1 103 31 is_stmt 1      @ /root/Bela/projects/delay/render.cpp:103:31
	movw	r3, #44099
	.loc	1 103 12 is_stmt 0      @ /root/Bela/projects/delay/render.cpp:103:12
	add	r10, r1, #1
.Ltmp26:
	.loc	1 103 12                @ /root/Bela/projects/delay/render.cpp:103:12
	cmp	r1, r3
	.loc	1 123 66 is_stmt 1      @ /root/Bela/projects/delay/render.cpp:123:66
	movw	r4, #44098
	.loc	1 103 12                @ /root/Bela/projects/delay/render.cpp:103:12
	movwgt	r10, #0
	.loc	1 123 66                @ /root/Bela/projects/delay/render.cpp:123:66
	add	r7, r10, r4
	movw	r4, #61839
	.loc	1 122 66                @ /root/Bela/projects/delay/render.cpp:122:66
	add	r6, r10, r3
	movt	r4, #12173
	.loc	1 109 105               @ /root/Bela/projects/delay/render.cpp:109:105
	ldr	r3, [sp]                @ 4-byte Reload
	mov	r2, r4
	.loc	1 109 89 is_stmt 0      @ /root/Bela/projects/delay/render.cpp:109:89
	add	r1, r10, r12
	.loc	1 123 73 is_stmt 1      @ /root/Bela/projects/delay/render.cpp:123:73
	smmul	r5, r7, r2
	.loc	1 109 105               @ /root/Bela/projects/delay/render.cpp:109:105
	sub	r1, r1, r3
	.loc	1 122 73                @ /root/Bela/projects/delay/render.cpp:122:73
	smmul	r4, r6, r2
	.loc	1 109 112               @ /root/Bela/projects/delay/render.cpp:109:112
	smmul	r3, r1, r2
	.loc	1 123 73                @ /root/Bela/projects/delay/render.cpp:123:73
	asr	r2, r5, #13
	add	r2, r2, r5, lsr #31
	.loc	1 122 73                @ /root/Bela/projects/delay/render.cpp:122:73
	asr	r5, r4, #13
	.loc	1 123 73                @ /root/Bela/projects/delay/render.cpp:123:73
	mls	r9, r2, r12, r7
	.loc	1 122 73                @ /root/Bela/projects/delay/render.cpp:122:73
	add	r2, r5, r4, lsr #31
	ldr	r4, [r0, #24]
	mls	r5, r2, r12, r6
	.loc	1 109 112               @ /root/Bela/projects/delay/render.cpp:109:112
	asr	r2, r3, #13
	add	r2, r2, r3, lsr #31
.Ltmp27:
	.file	2 "./include" "Bela.h"
	.loc	2 1378 32               @ ./include/Bela.h:1378:32
	mul	r3, r4, r11
	.loc	2 1378 9 is_stmt 0      @ ./include/Bela.h:1378:9
	ldr	r4, [sp, #4]            @ 4-byte Reload
.Ltmp28:
	.loc	1 110 56 is_stmt 1      @ /root/Bela/projects/delay/render.cpp:110:56
	movw	r6, :lower16:gDelayBuffer_r
	.loc	1 109 112               @ /root/Bela/projects/delay/render.cpp:109:112
	mls	r1, r2, r12, r1
	.loc	1 110 56                @ /root/Bela/projects/delay/render.cpp:110:56
	movt	r6, :upper16:gDelayBuffer_r
.Ltmp29:
	.loc	2 1378 9                @ ./include/Bela.h:1378:9
	add	r3, r4, r3, lsl #2
.Ltmp30:
	@DEBUG_VALUE: out_r <- %S2
	@DEBUG_VALUE: out_l <- %S0
	vldr	s0, [r3]
.Ltmp31:
	.loc	2 1378 9 is_stmt 0      @ ./include/Bela.h:1378:9
	vldr	s2, [r3, #4]
.Ltmp32:
	.loc	1 109 56 is_stmt 1      @ /root/Bela/projects/delay/render.cpp:109:56
	movw	r3, :lower16:gDelayBuffer_l
	movt	r3, :upper16:gDelayBuffer_l
	add	r7, r3, r1, lsl #2
.Ltmp33:
	.loc	1 104 31                @ /root/Bela/projects/delay/render.cpp:104:31
	str	r10, [lr]
.Ltmp34:
	.loc	1 123 31                @ /root/Bela/projects/delay/render.cpp:123:31
	add	r2, r3, r9, lsl #2
	.loc	1 109 30                @ /root/Bela/projects/delay/render.cpp:109:30
	vldr	s8, [lr, #12]
	.loc	1 109 56 is_stmt 0      @ /root/Bela/projects/delay/render.cpp:109:56
	vldr	s10, [r7]
	.loc	1 109 122               @ /root/Bela/projects/delay/render.cpp:109:122
	vldr	s12, [lr, #8]
	.loc	1 109 46                @ /root/Bela/projects/delay/render.cpp:109:46
	vmul.f32	d17, d4, d0
	.loc	1 119 23 is_stmt 1      @ /root/Bela/projects/delay/render.cpp:119:23
	vldr	s6, [lr, #20]
	.loc	1 110 46                @ /root/Bela/projects/delay/render.cpp:110:46
	vmul.f32	d19, d4, d1
	.loc	1 109 120               @ /root/Bela/projects/delay/render.cpp:109:120
	vmul.f32	d16, d6, d5
	.loc	1 120 23                @ /root/Bela/projects/delay/render.cpp:120:23
	vldr	s4, [lr, #24]
	.loc	1 120 31 is_stmt 0      @ /root/Bela/projects/delay/render.cpp:120:31
	vldr	s26, [lr, #44]
	.loc	1 121 31 is_stmt 1      @ /root/Bela/projects/delay/render.cpp:121:31
	vldr	s28, [lr, #48]
	.loc	1 120 30                @ /root/Bela/projects/delay/render.cpp:120:30
	vmul.f32	d18, d13, d2
	.loc	1 121 23                @ /root/Bela/projects/delay/render.cpp:121:23
	vldr	s10, [lr, #28]
	.loc	1 109 54                @ /root/Bela/projects/delay/render.cpp:109:54
	vadd.f32	d12, d16, d17
.Ltmp35:
	@DEBUG_VALUE: del_input_l <- %S24
	@DEBUG_VALUE: temp_x_l <- %S24
	.loc	1 123 31                @ /root/Bela/projects/delay/render.cpp:123:31
	vldr	s14, [r2]
	.loc	1 122 31                @ /root/Bela/projects/delay/render.cpp:122:31
	add	r2, r3, r5, lsl #2
	.loc	1 122 23 is_stmt 0      @ /root/Bela/projects/delay/render.cpp:122:23
	vldr	s18, [lr, #32]
	.loc	1 123 23 is_stmt 1      @ /root/Bela/projects/delay/render.cpp:123:23
	vldr	s20, [lr, #36]
	.loc	1 122 31                @ /root/Bela/projects/delay/render.cpp:122:31
	vldr	s22, [r2]
	.loc	1 110 56                @ /root/Bela/projects/delay/render.cpp:110:56
	add	r2, r6, r1, lsl #2
	.loc	1 126 19                @ /root/Bela/projects/delay/render.cpp:126:19
	vstr	s26, [lr, #48]
	.loc	1 119 30                @ /root/Bela/projects/delay/render.cpp:119:30
	vmul.f32	d17, d3, d12
.Ltmp36:
	.loc	1 110 56                @ /root/Bela/projects/delay/render.cpp:110:56
	vldr	s16, [r2]
	.loc	1 122 30                @ /root/Bela/projects/delay/render.cpp:122:30
	vmul.f32	d16, d11, d9
	.loc	1 127 19                @ /root/Bela/projects/delay/render.cpp:127:19
	vstr	s24, [lr, #44]
	.loc	1 128 21                @ /root/Bela/projects/delay/render.cpp:128:21
	ldr	r1, [lr, #52]
	.loc	1 128 19 is_stmt 0      @ /root/Bela/projects/delay/render.cpp:128:19
	str	r1, [lr, #56]
	.loc	1 136 31 is_stmt 1      @ /root/Bela/projects/delay/render.cpp:136:31
	add	r1, r6, r9, lsl #2
	.loc	1 120 21                @ /root/Bela/projects/delay/render.cpp:120:21
	vadd.f32	d17, d18, d17
	.loc	1 121 30                @ /root/Bela/projects/delay/render.cpp:121:30
	vmul.f32	d18, d14, d5
	.loc	1 136 31                @ /root/Bela/projects/delay/render.cpp:136:31
	vldr	s22, [r1]
	.loc	1 135 31                @ /root/Bela/projects/delay/render.cpp:135:31
	add	r1, r6, r5, lsl #2
	.loc	1 121 21                @ /root/Bela/projects/delay/render.cpp:121:21
	vadd.f32	d17, d17, d18
	.loc	1 110 120               @ /root/Bela/projects/delay/render.cpp:110:120
	vmul.f32	d18, d8, d6
	.loc	1 122 21                @ /root/Bela/projects/delay/render.cpp:122:21
	vadd.f32	d16, d17, d16
	.loc	1 123 30                @ /root/Bela/projects/delay/render.cpp:123:30
	vmul.f32	d17, d7, d10
	.loc	1 110 54                @ /root/Bela/projects/delay/render.cpp:110:54
	vadd.f32	d4, d18, d19
.Ltmp37:
	@DEBUG_VALUE: temp_x_r <- %S8
	@DEBUG_VALUE: del_input_r <- %S8
	.loc	1 123 21                @ /root/Bela/projects/delay/render.cpp:123:21
	vadd.f32	d7, d16, d17
.Ltmp38:
	@DEBUG_VALUE: del_input_l <- %S14
	.loc	1 136 30                @ /root/Bela/projects/delay/render.cpp:136:30
	vmul.f32	d16, d11, d10
	.loc	1 135 31                @ /root/Bela/projects/delay/render.cpp:135:31
	vldr	s20, [r1]
	.loc	1 132 30                @ /root/Bela/projects/delay/render.cpp:132:30
	vmul.f32	d18, d3, d4
	.loc	1 135 30                @ /root/Bela/projects/delay/render.cpp:135:30
	vmul.f32	d17, d10, d9
	.loc	1 129 19                @ /root/Bela/projects/delay/render.cpp:129:19
	vstr	s14, [lr, #52]
	.loc	1 133 31                @ /root/Bela/projects/delay/render.cpp:133:31
	vldr	s6, [lr, #60]
	.loc	1 134 31                @ /root/Bela/projects/delay/render.cpp:134:31
	vldr	s12, [lr, #64]
	.loc	1 133 30                @ /root/Bela/projects/delay/render.cpp:133:30
	vmul.f32	d19, d3, d2
	.loc	1 138 19                @ /root/Bela/projects/delay/render.cpp:138:19
	vstr	s6, [lr, #64]
	.loc	1 139 19                @ /root/Bela/projects/delay/render.cpp:139:19
	vstr	s8, [lr, #60]
	.loc	1 140 21                @ /root/Bela/projects/delay/render.cpp:140:21
	ldr	r1, [lr, #68]
	.loc	1 140 19 is_stmt 0      @ /root/Bela/projects/delay/render.cpp:140:19
	str	r1, [lr, #72]
.Ltmp39:
	@DEBUG_VALUE: del_input_r <- %S4
	.loc	1 144 9 is_stmt 1       @ /root/Bela/projects/delay/render.cpp:144:9
	add	r1, r3, r10, lsl #2
	.loc	1 133 21                @ /root/Bela/projects/delay/render.cpp:133:21
	vadd.f32	d18, d19, d18
	.loc	1 134 30                @ /root/Bela/projects/delay/render.cpp:134:30
	vmul.f32	d19, d6, d5
	.loc	1 144 43                @ /root/Bela/projects/delay/render.cpp:144:43
	vstr	s14, [r1]
	.loc	1 145 9                 @ /root/Bela/projects/delay/render.cpp:145:9
	add	r1, r6, r10, lsl #2
	.loc	1 148 18                @ /root/Bela/projects/delay/render.cpp:148:18
	vldr	s10, [r7]
	.loc	1 134 21                @ /root/Bela/projects/delay/render.cpp:134:21
	vadd.f32	d18, d18, d19
	.loc	1 135 21                @ /root/Bela/projects/delay/render.cpp:135:21
	vadd.f32	d17, d18, d17
	.loc	1 136 21                @ /root/Bela/projects/delay/render.cpp:136:21
	vadd.f32	d2, d17, d16
.Ltmp40:
	.loc	1 141 19                @ /root/Bela/projects/delay/render.cpp:141:19
	vstr	s4, [lr, #68]
	.loc	1 145 43                @ /root/Bela/projects/delay/render.cpp:145:43
	vstr	s4, [r1]
	.loc	1 148 84                @ /root/Bela/projects/delay/render.cpp:148:84
	vldr	s4, [lr, #4]
	.loc	1 149 18                @ /root/Bela/projects/delay/render.cpp:149:18
	vldr	s8, [r2]
.Ltmp41:
	.loc	1 148 82                @ /root/Bela/projects/delay/render.cpp:148:82
	vmul.f32	d17, d2, d5
	ldr	r1, [r0, #28]
	.loc	1 149 82                @ /root/Bela/projects/delay/render.cpp:149:82
	vmul.f32	d16, d4, d2
.Ltmp42:
	.loc	1 151 15                @ /root/Bela/projects/delay/render.cpp:151:15
	vldr	s6, [lr, #40]
.Ltmp43:
	@DEBUG_VALUE: out_r <- %S6
	@DEBUG_VALUE: out_l <- %S6
	ldr	r5, [r0, #4]
.Ltmp44:
	.loc	2 1389 26               @ ./include/Bela.h:1389:26
	mul	r1, r1, r11
.Ltmp45:
	.loc	1 93 56 discriminator 3 @ /root/Bela/projects/delay/render.cpp:93:56
	add	r11, r11, #1
.Ltmp46:
	@DEBUG_VALUE: n <- %R11
	.loc	1 148 15                @ /root/Bela/projects/delay/render.cpp:148:15
	vadd.f32	d17, d17, d0
.Ltmp47:
	@DEBUG_VALUE: out_r <- undef
	.loc	1 149 15                @ /root/Bela/projects/delay/render.cpp:149:15
	vadd.f32	d16, d16, d1
.Ltmp48:
	.loc	1 93 5 discriminator 1  @ /root/Bela/projects/delay/render.cpp:93:5
	cmp	r11, r8
.Ltmp49:
	.loc	1 151 7                 @ /root/Bela/projects/delay/render.cpp:151:7
	vmin.f32	d1, d17, d3
	.loc	1 155 7                 @ /root/Bela/projects/delay/render.cpp:155:7
	vmin.f32	d0, d16, d3
.Ltmp50:
	@DEBUG_VALUE: out_l <- undef
	add	r1, r5, r1, lsl #2
.Ltmp51:
	.loc	2 1389 65               @ ./include/Bela.h:1389:65
	vstr	s2, [r1]
.Ltmp52:
	.loc	2 1389 65 is_stmt 0     @ ./include/Bela.h:1389:65
	vstr	s0, [r1, #4]
.Ltmp53:
	.loc	1 103 12 is_stmt 1      @ /root/Bela/projects/delay/render.cpp:103:12
	mov	r1, r10
	blo	.LBB1_2
.Ltmp54:
.LBB1_3:                                @ %._crit_edge
	.loc	1 164 1                 @ /root/Bela/projects/delay/render.cpp:164:1
	add	sp, sp, #8
	vpop	{d8, d9, d10, d11, d12, d13, d14}
	add	sp, sp, #4
	pop	{r4, r5, r6, r7, r8, r9, r10, r11, pc}
.Ltmp55:
.Lfunc_end1:
	.size	render, .Lfunc_end1-render
	.cfi_endproc
	.file	3 "/usr/include" "stdint.h"
	.fnend

	.globl	cleanup
	.p2align	2
	.type	cleanup,%function
cleanup:                                @ @cleanup
.Lfunc_begin2:
	.loc	1 166 0                 @ /root/Bela/projects/delay/render.cpp:166:0
	.fnstart
	.cfi_startproc
@ BB#0:
	@DEBUG_VALUE: cleanup:context <- %R0
	@DEBUG_VALUE: cleanup:userData <- %R1
	.loc	1 166 53 prologue_end   @ /root/Bela/projects/delay/render.cpp:166:53
	bx	lr
.Ltmp56:
.Lfunc_end2:
	.size	cleanup, .Lfunc_end2-cleanup
	.cfi_endproc
	.fnend

	.type	gDelayBuffer_l,%object  @ @gDelayBuffer_l
	.bss
	.globl	gDelayBuffer_l
	.p2align	2
gDelayBuffer_l:
	.zero	176400
	.size	gDelayBuffer_l, 176400

	.type	gDelayBuffer_r,%object  @ @gDelayBuffer_r
	.globl	gDelayBuffer_r
	.p2align	2
gDelayBuffer_r:
	.zero	176400
	.size	gDelayBuffer_r, 176400

	.type	.L_MergedGlobals,%object @ @_MergedGlobals
	.data
	.p2align	4
.L_MergedGlobals:
	.long	0                       @ 0x0
	.long	1065353216              @ float 1
	.long	1071644672              @ float 1.75
	.long	1036831949              @ float 0.100000001
	.long	22050                   @ 0x5622
	.long	1043693452              @ float 0.177244365
	.long	1052082060              @ float 0.35448873
	.long	1043693452              @ float 0.177244365
	.long	3204594480              @ float -0.50871563
	.long	1046407918              @ float 0.217693061
	.long	1157234688              @ float 2000
	.long	0                       @ float 0
	.long	0                       @ float 0
	.long	0                       @ float 0
	.long	0                       @ float 0
	.long	0                       @ float 0
	.long	0                       @ float 0
	.long	0                       @ float 0
	.long	0                       @ float 0
	.size	.L_MergedGlobals, 76

	.section	".note.GNU-stack","",%progbits
	.eabi_attribute	30, 2	@ Tag_ABI_optimization_goals